Microchip MPLAB XC8 Compiler V2.41

Linker command line:

-W-3 \
  --edf=C:\Program Files\Microchip\xc8\v2.41\pic\dat\20230208172133_en.msgs \
  -cn \
  -h+dist/default/production\PIC16F877A_RS485_ModbusRTU_slave.X.production.sym \
  --cmf=dist/default/production\PIC16F877A_RS485_ModbusRTU_slave.X.production.cmf \
  -z -Q16F877A -oC:\Users\84935\AppData\Local\Temp\xcAs7nc.\driver_tmp_3.o \
  --defsym=__MPLAB_BUILD=1 --fixupoverflow=error \
  -Mdist/default/production/PIC16F877A_RS485_ModbusRTU_slave.X.production.map \
  --md=C:\Users\84935\AppData\Local\Temp\xcAs7nc.\driver_tmp_0.dat -E1 \
  -ver=XC8 Compiler --acfsm=1493 -ACODE=00h-07FFhx4 -ASTRCODE=00h-01FFFh \
  -ASTRING=00h-0FFhx32 -ACONST=00h-0FFhx32 -AENTRY=00h-0FFhx32 \
  -ACOMMON=070h-07Fh -ABANK0=020h-06Fh -ABANK1=0A0h-0EFh \
  -ABANK2=0110h-016Fh -ABANK3=0190h-01EFh \
  -ARAM=020h-06Fh,0A0h-0EFh,0110h-016Fh,0190h-01EFh \
  -AABS1=020h-07Fh,0A0h-0EFh,0110h-016Fh,0190h-01EFh -ASFR0=00h-01Fh \
  -ASFR1=080h-09Fh -ASFR2=0100h-010Fh -ASFR3=0180h-018Fh \
  -ACONFIG=02007h-02007h -DCONFIG=2 -AIDLOC=02000h-02003h -DIDLOC=2 \
  -AEEDATA=00h-0FFh/02100h -peeprom_data=EEDATA -DEEDATA=2 -DCODE=2 \
  -DSTRCODE=2 -DSTRING=2 -DCONST=2 -DENTRY=2 \
  -preset_vec=00h,intentry=04h,init,end_init -ppowerup=CODE -pcinit=CODE \
  -pfunctab=ENTRY -k \
  C:\Users\84935\AppData\Local\Temp\xcAs7nc.\driver_tmp_12.o \
  dist/default/production\PIC16F877A_RS485_ModbusRTU_slave.X.production.o 

Object code version is 3.11

Machine type is 16F877A



                Name                               Link     Load   Length Selector   Space Scale
C:\Users\84935\AppData\Local\Temp\xcAs7nc.\driver_tmp_12.o
                end_init                             12       12        3        8       0
                reset_vec                             0        0        3        0       0
                config                             2007     2007        1        0       4
                idloc                              2000     2000        4        0       5
dist/default/production\PIC16F877A_RS485_ModbusRTU_slave.X.production.o
                cinit                                15       15       22        8       0
                intentry                              4        4        E        8       0
                config                             2007     2007        1        0       4
                idloc                              2000     2000        4        0       5
                text32                              7DB      7DB       22      624       0
                text31                              F57      F57       1A     1EAE       0
                text30                              796      796       45      624       0
                text29                              6B0      6B0       4F      624       0
                text28                               DC       DC       21        8       0
                text27                              EC8      EC8        C     1D90       0
                text26                               BB       BB       21        8       0
                text25                              F14      F14       15     1E28       0
                text24                              FA7      FA7       1C     1F4E       0
                text23                              74C      74C       4A      624       0
                text22                              47D      47D       93      624       0
                text21                              65C      65C       54      624       0
                text20                              5F5      5F5       67      624       0
                text19                              312      312       D1      624       0
                text18                               95       95       26        8       0
                text17                              F29      F29       17     1E52       0
                text16                               66       66       2F        8       0
                text15                              3E3      3E3       9A      624       0
                text14                              EA2      EA2        6     1D44       0
                text13                              6FF      6FF       4D      624       0
                text12                              F40      F40       17     1E80       0
                text11                              510      510       77      624       0
                text10                              ED4      ED4        D     1DA8       0
                text9                                37       37       2F        8       0
                text8                               FE0      FE0       20     1FC0       0
                text7                               F71      F71       1B     1EE2       0
                text6                               EE1      EE1        D     1DC2       0
                text5                               587      587       6E      624       0
                text4                               EAE      EAE        7     1D5C       0
                text3                               FC3      FC3       1D     1F86       0
                text2                               EBD      EBD        B     1D7A       0
                text1                               EA8      EA8        6     1D50       0
                maintext                            EEE      EEE       13     1DDC       0
                cstackBANK0                          3B       3B       18       20       1
                cstackCOMMON                         70       70        E       70       1
                clrtext                             EB5      EB5        8     1D6A       0
                inittext                            F01      F01       13     1E02       0
                bssBANK1                             A0       A0       32       A0       1
                dataBANK0                            20       20       1B       20       1
                bssBANK0                             53       53        9       20       1
                stringtext                          100      100      212        2       0
                idataBANK0                          F8C      F8C       1B     1F18       0

TOTAL           Name                               Link     Load   Length     Space
        CLASS   CODE           
                end_init                             12       12        3         0
                cinit                                15       15       22         0
                intentry                              4        4        E         0
                reset_vec                             0        0        3         0
                text32                              7DB      7DB       22         0
                text31                              F57      F57       1A         0
                text30                              796      796       45         0
                text29                              6B0      6B0       4F         0
                text28                               DC       DC       21         0
                text27                              EC8      EC8        C         0
                text26                               BB       BB       21         0
                text25                              F14      F14       15         0
                text24                              FA7      FA7       1C         0
                text23                              74C      74C       4A         0
                text22                              47D      47D       93         0
                text21                              65C      65C       54         0
                text20                              5F5      5F5       67         0
                text19                              312      312       D1         0
                text18                               95       95       26         0
                text17                              F29      F29       17         0
                text16                               66       66       2F         0
                text15                              3E3      3E3       9A         0
                text14                              EA2      EA2        6         0
                text13                              6FF      6FF       4D         0
                text12                              F40      F40       17         0
                text11                              510      510       77         0
                text10                              ED4      ED4        D         0
                text9                                37       37       2F         0
                text8                               FE0      FE0       20         0
                text7                               F71      F71       1B         0
                text6                               EE1      EE1        D         0
                text5                               587      587       6E         0
                text4                               EAE      EAE        7         0
                text3                               FC3      FC3       1D         0
                text2                               EBD      EBD        B         0
                text1                               EA8      EA8        6         0
                maintext                            EEE      EEE       13         0
                clrtext                             EB5      EB5        8         0
                inittext                            F01      F01       13         0
                idataBANK0                          F8C      F8C       1B         0

        CLASS   STRCODE        
                stringtext                          100      100      212         0

        CLASS   STRING         

        CLASS   CONST          

        CLASS   ENTRY          

        CLASS   COMMON         
                cstackCOMMON                         70       70        E         1

        CLASS   BANK0          
                cstackBANK0                          3B       3B       18         1
                dataBANK0                            20       20       1B         1
                bssBANK0                             53       53        9         1

        CLASS   BANK1          
                bssBANK1                             A0       A0       32         1

        CLASS   BANK2          

        CLASS   BANK3          

        CLASS   RAM            

        CLASS   ABS1           
                abs_s1                               7E       7E        2         1

        CLASS   SFR0           

        CLASS   SFR1           

        CLASS   SFR2           

        CLASS   SFR3           

        CLASS   CONFIG         
                config                             2007     2007        1         4

        CLASS   IDLOC          
                idloc                              2000     2000        4         5

        CLASS   EEDATA         

        CLASS   STACK          



SEGMENTS        Name                           Load    Length   Top    Selector   Space  Class     Delta

                reset_vec                      000000  000003  000003         0       0  CODE        2
                intentry                       000004  0000F9  0000FD         8       0  CODE        2
                dataBANK0                      000020  00003C  00005C        20       1  BANK0       1
                cstackCOMMON                   000070  00000E  00007E        70       1  COMMON      1
                bssBANK1                       0000A0  000032  0000D2        A0       1  BANK1       1
                stringtext                     000100  000212  000312         2       0  STRCODE     2
                text19                         000312  0004EB  0007FD       624       0  CODE        2
                text14                         000EA2  000006  000EA8      1D44       0  CODE        2
                text1                          000EA8  000006  000EAE      1D50       0  CODE        2
                text4                          000EAE  000007  000EB5      1D5C       0  CODE        2
                clrtext                        000EB5  000008  000EBD      1D6A       0  CODE        2
                text2                          000EBD  00000B  000EC8      1D7A       0  CODE        2
                text27                         000EC8  00000C  000ED4      1D90       0  CODE        2
                text10                         000ED4  00000D  000EE1      1DA8       0  CODE        2
                text6                          000EE1  00000D  000EEE      1DC2       0  CODE        2
                maintext                       000EEE  000013  000F01      1DDC       0  CODE        2
                inittext                       000F01  000013  000F14      1E02       0  CODE        2
                text25                         000F14  000015  000F29      1E28       0  CODE        2
                text17                         000F29  000017  000F40      1E52       0  CODE        2
                text12                         000F40  000017  000F57      1E80       0  CODE        2
                text31                         000F57  00001A  000F71      1EAE       0  CODE        2
                text7                          000F71  00001B  000F8C      1EE2       0  CODE        2
                idataBANK0                     000F8C  00001B  000FA7      1F18       0  CODE        2
                text24                         000FA7  00001C  000FC3      1F4E       0  CODE        2
                text3                          000FC3  00001D  000FE0      1F86       0  CODE        2
                text8                          000FE0  000020  001000      1FC0       0  CODE        2


UNUSED ADDRESS RANGES

        Name                Unused          Largest block    Delta
        BANK0            005C-006F             14           1
        BANK1            00D2-00EF             1E           1
        BANK2            0110-016F             60           1
        BANK3            0190-01EF             60           1
        CODE             0003-0003              1           2
                         00FD-00FF              3
                         07FD-0EA1              3
                         1000-1FFF            800
        CONST            0003-0003              1           2
                         00FD-00FF              3
                         07FD-0EA1            100
                         1000-1FFF            100
        EEDATA           2100-21FF            100           2
        ENTRY            0003-0003              1           2
                         00FD-00FF              3
                         07FD-0EA1            100
                         1000-1FFF            100
        RAM              005C-006F             14           1
                         00D2-00EF             1E
                         0110-016F             60
                         0190-01EF             60
        SFR0             0000-001F             20           1
        SFR1             0080-009F             20           1
        SFR2             0100-010F             10           1
        SFR3             0180-018F             10           1
        STRCODE          0003-0003              1           2
                         00FD-00FF              3
                         07FD-0EA1            6A5
                         1000-1FFF           1000
        STRING           0003-0003              1           2
                         00FD-00FF              3
                         07FD-0EA1            100
                         1000-1FFF            100

                                  Symbol Table

?_RS485rcvString                           cstackCOMMON 0076
?_UARTrcvString                            cstackCOMMON 0071
?___awdiv                                  cstackCOMMON 0070
?_crc16                                    cstackCOMMON 0070
?_modbusRcvRequest                         cstackCOMMON 007B
?_strlen                                   cstackCOMMON 0070
LCD_CMD@CMD                                cstackBANK0  0050
LCD_DATA@Data                              cstackBANK0  004D
LCD_Set_Cursor@High4                       cstackCOMMON 0078
LCD_Set_Cursor@Low4                        cstackCOMMON 0077
LCD_Set_Cursor@Temp                        cstackCOMMON 0079
LCD_Set_Cursor@c                           cstackCOMMON 0074
LCD_Set_Cursor@r                           cstackCOMMON 0076
LCD_Write_Char@Data                        cstackCOMMON 0075
LCD_Write_Char@High4                       cstackCOMMON 0074
LCD_Write_Char@Low4                        cstackCOMMON 0073
LCD_Write_String@i                         cstackCOMMON 0077
LCD_Write_String@str                       cstackCOMMON 0079
RS485rcvString@done                        cstackCOMMON 0078
RS485rcvString@length                      cstackCOMMON 0076
RS485rcvString@rcv_buffer                  cstackCOMMON 007A
RS485sendString@str                        cstackCOMMON 0076
UARTrcvChar@c                              cstackCOMMON 0070
UARTrcvString@length                       cstackCOMMON 0071
UARTrcvString@rcv_buffer                   cstackCOMMON 0075
UARTsendChar@c                             cstackCOMMON 0070
UARTsendString@i                           cstackCOMMON 0072
UARTsendString@str                         cstackCOMMON 0074
_BRGH                                      (abs)        04C2
_CREN                                      (abs)        00C4
_GIE                                       (abs)        005F
_ISR                                       text9        0037
_LCD_CMD                                   text7        0F71
_LCD_Clear                                 text6        0EE1
_LCD_DATA                                  text8        0FE0
_LCD_Init                                  text5        0587
_LCD_Set_Cursor                            text30       0796
_LCD_Write_Char                            text29       06B0
_LCD_Write_String                          text28       00DC
_PEIE                                      (abs)        005E
_RCIE                                      (abs)        0465
_RCIF                                      (abs)        0065
_RCREG                                     (abs)        001A
_RD0                                       (abs)        0040
_RD2                                       (abs)        0042
_RD3                                       (abs)        0043
_RD4                                       (abs)        0044
_RD5                                       (abs)        0045
_RD6                                       (abs)        0046
_RD7                                       (abs)        0047
_RS485Init                                 text2        0EBD
_RS485TxConfig                             text4        0EAE
_RS485rcvString                            text12       0F40
_RS485sendString                           text25       0F14
_RX9                                       (abs)        00C6
_SPBRG                                     (abs)        0099
_SPEN                                      (abs)        00C7
_SYNC                                      (abs)        04C4
_TRISC6                                    (abs)        043E
_TRISC7                                    (abs)        043F
_TRISD                                     (abs)        0088
_TRISD0                                    (abs)        0440
_TRISD2                                    (abs)        0442
_TRISD3                                    (abs)        0443
_TRMT                                      (abs)        04C1
_TX9                                       (abs)        04C6
_TXEN                                      (abs)        04C5
_TXREG                                     (abs)        0019
_UARTTransRcvInit                          text3        0FC3
_UARTrcvChar                               text14       0EA2
_UARTrcvString                             text13       06FF
_UARTsendChar                              text27       0EC8
_UARTsendString                            text26       00BB
__H__absolute__                            __absolute__ 0000
__Habs1                                    abs1         0000
__Hbank0                                   bank0        0000
__Hbank1                                   bank1        0000
__Hbank2                                   bank2        0000
__Hbank3                                   bank3        0000
__HbssBANK0                                bssBANK0     0000
__HbssBANK1                                bssBANK1     0000
__Hcinit                                   cinit        0037
__Hclrtext                                 clrtext      0000
__Hcode                                    code         0000
__Hcommon                                  common       0000
__Hconfig                                  config       2008
__HcstackBANK0                             cstackBANK0  0000
__HcstackCOMMON                            cstackCOMMON 0000
__HdataBANK0                               dataBANK0    0000
__Heeprom_data                             eeprom_data  0000
__Hend_init                                end_init     0015
__Hfunctab                                 functab      0000
__HidataBANK0                              idataBANK0   0000
__Hidloc                                   idloc        2004
__Hinit                                    init         0012
__Hinittext                                inittext     0000
__Hintentry                                intentry     0012
__Hmaintext                                maintext     0000
__Hpowerup                                 powerup      0000
__Hram                                     ram          0000
__Hreset_vec                               reset_vec    0003
__Hsfr0                                    sfr0         0000
__Hsfr1                                    sfr1         0000
__Hsfr2                                    sfr2         0000
__Hsfr3                                    sfr3         0000
__Hspace_0                                 (abs)        1000
__Hspace_1                                 (abs)        00D2
__Hspace_2                                 (abs)        0000
__Hspace_3                                 (abs)        0000
__Hspace_4                                 (abs)        400F
__Hstack                                   stack        0000
__Hstrings                                 strings      0000
__Hstringtext                              stringtext   0000
__Htext                                    text         0000
__L__absolute__                            __absolute__ 0000
__Labs1                                    abs1         0000
__Lbank0                                   bank0        0000
__Lbank1                                   bank1        0000
__Lbank2                                   bank2        0000
__Lbank3                                   bank3        0000
__LbssBANK0                                bssBANK0     0000
__LbssBANK1                                bssBANK1     0000
__Lcinit                                   cinit        0015
__Lclrtext                                 clrtext      0000
__Lcode                                    code         0000
__Lcommon                                  common       0000
__Lconfig                                  config       0000
__LcstackBANK0                             cstackBANK0  0000
__LcstackCOMMON                            cstackCOMMON 0000
__LdataBANK0                               dataBANK0    0000
__Leeprom_data                             eeprom_data  0000
__Lend_init                                end_init     0012
__Lfunctab                                 functab      0000
__LidataBANK0                              idataBANK0   0000
__Lidloc                                   idloc        0000
__Linit                                    init         0012
__Linittext                                inittext     0000
__Lintentry                                intentry     0004
__Lmaintext                                maintext     0000
__Lpowerup                                 powerup      0000
__Lram                                     ram          0000
__Lreset_vec                               reset_vec    0000
__Lsfr0                                    sfr0         0000
__Lsfr1                                    sfr1         0000
__Lsfr2                                    sfr2         0000
__Lsfr3                                    sfr3         0000
__Lspace_0                                 (abs)        0000
__Lspace_1                                 (abs)        0000
__Lspace_2                                 (abs)        0000
__Lspace_3                                 (abs)        0000
__Lspace_4                                 (abs)        0000
__Lstack                                   stack        0000
__Lstrings                                 strings      0000
__Lstringtext                              stringtext   0000
__Ltext                                    text         0000
__S0                                       (abs)        1000
__S1                                       (abs)        00D2
__S3                                       (abs)        0000
___awdiv                                   text20       05F5
___awdiv@counter                           cstackCOMMON 0074
___awdiv@dividend                          cstackCOMMON 0072
___awdiv@divisor                           cstackCOMMON 0070
___awdiv@quotient                          cstackCOMMON 0076
___awdiv@sign                              cstackCOMMON 0075
___int_sp                                  stack        0000
___latbits                                 (abs)        0002
___sp                                      stack        0000
___stackhi                                 (abs)        0000
___stacklo                                 (abs)        0000
__end_of_ISR                               text9        0066
__end_of_LCD_CMD                           text7        0F8C
__end_of_LCD_Clear                         text6        0EEE
__end_of_LCD_DATA                          text8        1000
__end_of_LCD_Init                          text5        05F5
__end_of_LCD_Set_Cursor                    text30       07DB
__end_of_LCD_Write_Char                    text29       06FF
__end_of_LCD_Write_String                  text28       00FD
__end_of_RS485Init                         text2        0EC8
__end_of_RS485TxConfig                     text4        0EB5
__end_of_RS485rcvString                    text12       0F57
__end_of_RS485sendString                   text25       0F29
__end_of_UARTTransRcvInit                  text3        0FE0
__end_of_UARTrcvChar                       text14       0EA8
__end_of_UARTrcvString                     text13       074C
__end_of_UARTsendChar                      text27       0ED4
__end_of_UARTsendString                    text26       00DC
__end_of___awdiv                           text20       065C
__end_of__initialization                   cinit        0033
__end_of__stringtab                        stringtext   0112
__end_of_clearBuffer                       text24       0FC3
__end_of_crc16                             text23       0796
__end_of_main                              maintext     0F01
__end_of_memcpy                            text18       00BB
__end_of_modbusMesHandling                 text15       047D
__end_of_modbusRTUInit                     text1        0EAE
__end_of_modbusRcvRequest                  text11       0587
__end_of_modbusResponseCoilsRead           text22       0510
__end_of_modbusResponseMultipleWrite       text21       06B0
__end_of_modbusResponseRegistersRead       text19       03E3
__end_of_modbusResponseSingleWrite         text16       0095
__end_of_strlen                            text17       0F40
__end_of_wCRCTable                         stringtext   0312
__end_ofi1_LCD_CMD                         text31       0F71
__end_ofi1_LCD_Clear                       text10       0EE1
__end_ofi1_LCD_DATA                        text32       07FD
__initialization                           cinit        0015
__pbssBANK0                                bssBANK0     0053
__pbssBANK1                                bssBANK1     00A0
__pcstackBANK0                             cstackBANK0  003B
__pcstackCOMMON                            cstackCOMMON 0070
__pdataBANK0                               dataBANK0    0020
__pidataBANK0                              idataBANK0   0F8C
__pintentry                                intentry     0004
__pmaintext                                maintext     0EEE
__pstringtext                              stringtext   0100
__ptext1                                   text1        0EA8
__ptext10                                  text10       0ED4
__ptext11                                  text11       0510
__ptext12                                  text12       0F40
__ptext13                                  text13       06FF
__ptext14                                  text14       0EA2
__ptext15                                  text15       03E3
__ptext16                                  text16       0066
__ptext17                                  text17       0F29
__ptext18                                  text18       0095
__ptext19                                  text19       0312
__ptext2                                   text2        0EBD
__ptext20                                  text20       05F5
__ptext21                                  text21       065C
__ptext22                                  text22       047D
__ptext23                                  text23       074C
__ptext24                                  text24       0FA7
__ptext25                                  text25       0F14
__ptext26                                  text26       00BB
__ptext27                                  text27       0EC8
__ptext28                                  text28       00DC
__ptext29                                  text29       06B0
__ptext3                                   text3        0FC3
__ptext30                                  text30       0796
__ptext31                                  text31       0F57
__ptext32                                  text32       07DB
__ptext4                                   text4        0EAE
__ptext5                                   text5        0587
__ptext6                                   text6        0EE1
__ptext7                                   text7        0F71
__ptext8                                   text8        0FE0
__ptext9                                   text9        0037
__stringbase                               stringtext   0112
__stringtab                                stringtext   0100
_change_rcv_len                            bssBANK0     005B
_clearBuffer                               text24       0FA7
_coil_val                                  dataBANK0    0039
_crc16                                     text23       074C
_error_msg                                 dataBANK0    0022
_main                                      maintext     0EEE
_memcpy                                    text18       0095
_modbusMesHandling                         text15       03E3
_modbusRTUInit                             text1        0EA8
_modbusRcvRequest                          text11       0510
_modbusResponseCoilsRead                   text22       047D
_modbusResponseMultipleWrite               text21       065C
_modbusResponseRegistersRead               text19       0312
_modbusResponseSingleWrite                 text16       0066
_rcv_buffer                                bssBANK1     00B9
_register_val                              dataBANK0    0035
_slave_rcv_buffer_len                      dataBANK0    0020
_strlen                                    text17       0F29
_tx_buffer                                 bssBANK1     00A0
_uart_str_idx                              bssBANK0     0059
_uart_str_idx@PIC16F877A_UART$F221         bssBANK0     0053
_wCRCTable                                 stringtext   0112
btemp                                      (abs)        007E
clearBuffer@buffer                         cstackCOMMON 0074
clearBuffer@i                              cstackCOMMON 0075
clearBuffer@len                            cstackCOMMON 0070
clear_ram0                                 clrtext      0EB5
crc16@buffer                               cstackCOMMON 0077
crc16@crcWord                              cstackCOMMON 0078
crc16@length                               cstackCOMMON 0070
crc16@temp                                 cstackCOMMON 0076
end_of_initialization                      cinit        0033
i1LCD_CMD@CMD                              cstackCOMMON 0073
i1LCD_DATA@Data                            cstackCOMMON 0070
i1_LCD_CMD                                 text31       0F57
i1_LCD_Clear                               text10       0ED4
i1_LCD_DATA                                text32       07DB
init_fetch0                                inittext     0F01
init_ram0                                  inittext     0F05
interrupt_function                         intentry     0004
intlevel0                                  functab      0000
intlevel1                                  functab      0000
intlevel2                                  functab      0000
intlevel3                                  functab      0000
intlevel4                                  functab      0000
intlevel5                                  functab      0000
memcpy@d                                   cstackCOMMON 0079
memcpy@d1                                  cstackCOMMON 0078
memcpy@n                                   cstackCOMMON 0075
memcpy@s                                   cstackCOMMON 007A
memcpy@s1                                  cstackCOMMON 0074
memcpy@tmp                                 cstackCOMMON 0077
modbusMesHandling@function                 cstackBANK0  0048
modbusRcvRequest@modbus_rcv_request_done   cstackBANK0  003D
modbusRcvRequest@rcv_buffer                cstackBANK0  003F
modbusResponseCoilsRead@checksum           cstackBANK0  003F
modbusResponseCoilsRead@coil_num           cstackBANK0  003D
modbusResponseCoilsRead@coil_value         cstackCOMMON 007D
modbusResponseCoilsRead@i                  cstackBANK0  0041
modbusResponseCoilsRead@length             cstackCOMMON 007A
modbusResponseCoilsRead@rcv_buffer         cstackCOMMON 007C
modbusResponseCoilsRead@tx_buffer          cstackBANK0  0042
modbusResponseMultipleWrite@checksum       cstackBANK0  003D
modbusResponseMultipleWrite@i              cstackBANK0  0040
modbusResponseMultipleWrite@length         cstackCOMMON 007A
modbusResponseMultipleWrite@rcv_buffer     cstackCOMMON 007C
modbusResponseMultipleWrite@tx_buffer      cstackBANK0  003F
modbusResponseRegistersRead@checksum       cstackBANK0  0044
modbusResponseRegistersRead@i              cstackBANK0  0046
modbusResponseRegistersRead@length         cstackCOMMON 007A
modbusResponseRegistersRead@rcv_buffer     cstackCOMMON 007C
modbusResponseRegistersRead@register_num   cstackBANK0  0042
modbusResponseRegistersRead@register_value cstackCOMMON 007D
modbusResponseRegistersRead@tx_buffer      cstackBANK0  0047
modbusResponseSingleWrite@length           cstackCOMMON 007B
modbusResponseSingleWrite@rcv_buffer       cstackCOMMON 007D
modbusResponseSingleWrite@tx_buffer        cstackBANK0  003B
reset_vec                                  reset_vec    0000
saved_w                                    (abs)        007E
start                                      init         0012
start_initialization                       cinit        0015
strlen@cp                                  cstackCOMMON 0073
strlen@s                                   cstackCOMMON 0072
wtemp0                                     (abs)        007E


MODULE INFORMATION

Module		Function		Class		Link	Load	Size
LCD16x2.c
		_LCD_Init      		CODE           	0587	0000	110
		_LCD_Write_Char		CODE           	06B0	0000	79
		_LCD_CMD       		CODE           	0F71	0000	27
		_LCD_DATA      		CODE           	0FE0	0000	32
		_LCD_Set_Cursor		CODE           	0796	0000	69
		_LCD_Clear     		CODE           	0EE1	0000	13
		_LCD_Write_String		CODE           	00DC	0000	33

LCD16x2.c estimated size: 363

C:\Program Files\Microchip\xc8\v2.41\pic\sources\c90\common\memcpy.c
		_memcpy        		CODE           	0095	0000	38

C:\Program Files\Microchip\xc8\v2.41\pic\sources\c90\common\memcpy.c estimated size: 38

PIC16F877A_RS485_ModbusRTU_slave.c
		_ISR           		CODE           	0037	0000	47
		_modbusMesHandling		CODE           	03E3	0000	154
		_main          		CODE           	0EEE	0000	19

PIC16F877A_RS485_ModbusRTU_slave.c estimated size: 220

C:\Program Files\Microchip\xc8\v2.41\pic\sources\c90\common\awdiv.c
		___awdiv       		CODE           	05F5	0000	103

C:\Program Files\Microchip\xc8\v2.41\pic\sources\c90\common\awdiv.c estimated size: 103

PIC16F877A_RS485.c
		_RS485TxConfig 		CODE           	0EAE	0000	7
		_RS485rcvString		CODE           	0F40	0000	23
		_RS485sendString		CODE           	0F14	0000	21
		_RS485Init     		CODE           	0EBD	0000	11

PIC16F877A_RS485.c estimated size: 62

shared
		__stringtab    		STRCODE        	0100	0000	18
		i1_LCD_CMD     		CODE           	0F57	0000	26
		i1_LCD_Clear   		CODE           	0ED4	0000	13
		_wCRCTable     		STRCODE        	0112	0000	512
		__initialization		CODE           	0015	0000	30
		i1_LCD_DATA    		CODE           	07DB	0000	34

shared estimated size: 633

C:\Program Files\Microchip\xc8\v2.41\pic\sources\c90\common\strlen.c
		_strlen        		CODE           	0F29	0000	23

C:\Program Files\Microchip\xc8\v2.41\pic\sources\c90\common\strlen.c estimated size: 23

CRC.c
		_crc16         		CODE           	074C	0000	74

CRC.c estimated size: 74

PIC16F877A_UART.c
		_UARTrcvChar   		CODE           	0EA2	0000	6
		_UARTrcvString 		CODE           	06FF	0000	77
		_UARTsendChar  		CODE           	0EC8	0000	12
		_UARTsendString		CODE           	00BB	0000	33
		_UARTTransRcvInit		CODE           	0FC3	0000	29

PIC16F877A_UART.c estimated size: 157

RS485_ModbusRTU_slave.c
		_modbusResponseCoilsRead		CODE           	047D	0000	147
		_modbusResponseRegistersRead		CODE           	0312	0000	209
		_modbusResponseMultipleWrite		CODE           	065C	0000	84
		_modbusRTUInit 		CODE           	0EA8	0000	6
		_modbusRcvRequest		CODE           	0510	0000	119
		_modbusResponseSingleWrite		CODE           	0066	0000	47
		_clearBuffer   		CODE           	0FA7	0000	28

RS485_ModbusRTU_slave.c estimated size: 640

